target datalayout = "e-m:e-p270:32:32-p271:32:32-p272:64:64-i64:64-i128:128-f80:128-n8:16:32:64-S128"
target triple = "x86_64-pc-linux-gnu"

%struct.Vec_Int_t_ = type { i32, i32, ptr }
%struct.Vec_Wrd_t_ = type { i32, i32, ptr }
%struct.Gia_SimRsbMan_t_ = type { ptr, ptr, ptr, ptr, ptr, ptr, ptr, i32, [3 x ptr] }

; Function Attrs: inlinehint nounwind uwtable
define internal void @Abc_TtSetBit(ptr noundef %0, i32 noundef %1) #2 {
  %3 = alloca ptr, align 8
  %4 = alloca i32, align 4
  store ptr %0, ptr %3, align 8, !tbaa !47
  store i32 %1, ptr %4, align 4, !tbaa !8
  %5 = load i32, ptr %4, align 4, !tbaa !8
  %6 = and i32 %5, 63
  %7 = zext i32 %6 to i64
  %8 = shl i64 1, %7
  %9 = load ptr, ptr %3, align 8, !tbaa !47
  %10 = load i32, ptr %4, align 4, !tbaa !8
  %11 = ashr i32 %10, 6
  %12 = sext i32 %11 to i64
  %13 = getelementptr inbounds i64, ptr %9, i64 %12
  %14 = load i64, ptr %13, align 8, !tbaa !46
  %15 = or i64 %14, %8
  store i64 %15, ptr %13, align 8, !tbaa !46
  ret void
}

; Function Attrs: inlinehint nounwind uwtable
define internal i32 @Abc_TtGetBit(ptr noundef %0, i32 noundef %1) #2 {
  %3 = alloca ptr, align 8
  %4 = alloca i32, align 4
  store ptr %0, ptr %3, align 8, !tbaa !47
  store i32 %1, ptr %4, align 4, !tbaa !8
  %5 = load ptr, ptr %3, align 8, !tbaa !47
  %6 = load i32, ptr %4, align 4, !tbaa !8
  %7 = ashr i32 %6, 6
  %8 = sext i32 %7 to i64
  %9 = getelementptr inbounds i64, ptr %5, i64 %8
  %10 = load i64, ptr %9, align 8, !tbaa !46
  %11 = load i32, ptr %4, align 4, !tbaa !8
  %12 = and i32 %11, 63
  %13 = zext i32 %12 to i64
  %14 = lshr i64 %10, %13
  %15 = trunc i64 %14 to i32
  %16 = and i32 %15, 1
  ret i32 %16
}

; Function Attrs: inlinehint nounwind uwtable
define internal i32 @Vec_IntEntry(ptr noundef %0, i32 noundef %1) #2 {
  %3 = alloca ptr, align 8
  %4 = alloca i32, align 4
  store ptr %0, ptr %3, align 8, !tbaa !33
  store i32 %1, ptr %4, align 4, !tbaa !8
  %5 = load ptr, ptr %3, align 8, !tbaa !33
  %6 = getelementptr inbounds nuw %struct.Vec_Int_t_, ptr %5, i32 0, i32 2
  %7 = load ptr, ptr %6, align 8, !tbaa !58
  %8 = load i32, ptr %4, align 4, !tbaa !8
  %9 = sext i32 %8 to i64
  %10 = getelementptr inbounds i32, ptr %7, i64 %9
  %11 = load i32, ptr %10, align 4, !tbaa !8
  ret i32 %11
}

; Function Attrs: inlinehint nounwind uwtable
define internal ptr @Vec_WrdEntryP(ptr noundef %0, i32 noundef %1) #2 {
  %3 = alloca ptr, align 8
  %4 = alloca i32, align 4
  store ptr %0, ptr %3, align 8, !tbaa !10
  store i32 %1, ptr %4, align 4, !tbaa !8
  %5 = load ptr, ptr %3, align 8, !tbaa !10
  %6 = getelementptr inbounds nuw %struct.Vec_Wrd_t_, ptr %5, i32 0, i32 2
  %7 = load ptr, ptr %6, align 8, !tbaa !37
  %8 = load i32, ptr %4, align 4, !tbaa !8
  %9 = sext i32 %8 to i64
  %10 = getelementptr inbounds i64, ptr %7, i64 %9
  ret ptr %10
}

; Function Attrs: inlinehint nounwind uwtable
define internal i32 @Abc_Truth6WordNum(i32 noundef %0) #2 {
  %2 = alloca i32, align 4
  store i32 %0, ptr %2, align 4, !tbaa !8
  %3 = load i32, ptr %2, align 4, !tbaa !8
  %4 = icmp sle i32 %3, 6
  br i1 %4, label %5, label %6

5:                                                ; preds = %1
  br label %10

6:                                                ; preds = %1
  %7 = load i32, ptr %2, align 4, !tbaa !8
  %8 = sub nsw i32 %7, 6
  %9 = shl i32 1, %8
  br label %10

10:                                               ; preds = %6, %5
  %11 = phi i32 [ 1, %5 ], [ %9, %6 ]
  ret i32 %11
}

; Function Attrs: inlinehint nounwind uwtable
define internal i32 @Vec_IntSize(ptr noundef %0) #2 {
  %2 = alloca ptr, align 8
  store ptr %0, ptr %2, align 8, !tbaa !33
  %3 = load ptr, ptr %2, align 8, !tbaa !33
  %4 = getelementptr inbounds nuw %struct.Vec_Int_t_, ptr %3, i32 0, i32 1
  %5 = load i32, ptr %4, align 4, !tbaa !34
  ret i32 %5
}

; Function Attrs: nounwind uwtable
define ptr @Gia_SimRsbFunc(ptr noundef %0, i32 noundef %1, ptr noundef %2, i32 noundef %3) #0 {
  %5 = alloca ptr, align 8
  %6 = alloca i32, align 4
  %7 = alloca ptr, align 8
  %8 = alloca i32, align 4
  %9 = alloca i32, align 4
  %10 = alloca ptr, align 8
  %11 = alloca ptr, align 8
  %12 = alloca [16 x ptr], align 16
  %13 = alloca i32, align 4
  %14 = alloca i32, align 4
  %15 = alloca i32, align 4
  %16 = alloca i32, align 4
  %17 = alloca i32, align 4
  store ptr %0, ptr %5, align 8, !tbaa !162
  store i32 %1, ptr %6, align 4, !tbaa !8
  store ptr %2, ptr %7, align 8, !tbaa !33
  store i32 %3, ptr %8, align 4, !tbaa !8
  call void @llvm.lifetime.start.p0(i64 4, ptr %9) #13
  %18 = load ptr, ptr %7, align 8, !tbaa !33
  %19 = call i32 @Vec_IntSize(ptr noundef %18)
  %20 = call i32 @Abc_Truth6WordNum(i32 noundef %19)
  store i32 %20, ptr %9, align 4, !tbaa !8
  call void @llvm.lifetime.start.p0(i64 8, ptr %10) #13
  %21 = load i32, ptr %9, align 4, !tbaa !8
  %22 = sext i32 %21 to i64
  %23 = call noalias ptr @calloc(i64 noundef %22, i64 noundef 8) #16
  store ptr %23, ptr %10, align 8, !tbaa !47
  call void @llvm.lifetime.start.p0(i64 8, ptr %11) #13
  %24 = load ptr, ptr %5, align 8, !tbaa !162
  %25 = getelementptr inbounds nuw %struct.Gia_SimRsbMan_t_, ptr %24, i32 0, i32 5
  %26 = load ptr, ptr %25, align 8, !tbaa !171
  %27 = load ptr, ptr %5, align 8, !tbaa !162
  %28 = getelementptr inbounds nuw %struct.Gia_SimRsbMan_t_, ptr %27, i32 0, i32 7
  %29 = load i32, ptr %28, align 8, !tbaa !166
  %30 = load i32, ptr %6, align 4, !tbaa !8
  %31 = mul nsw i32 %29, %30
  %32 = call ptr @Vec_WrdEntryP(ptr noundef %26, i32 noundef %31)
  store ptr %32, ptr %11, align 8, !tbaa !47
  call void @llvm.lifetime.start.p0(i64 128, ptr %12) #13
  call void @llvm.memset.p0.i64(ptr align 16 %12, i8 0, i64 128, i1 false)
  call void @llvm.lifetime.start.p0(i64 4, ptr %13) #13
  call void @llvm.lifetime.start.p0(i64 4, ptr %14) #13
  call void @llvm.lifetime.start.p0(i64 4, ptr %15) #13
  call void @llvm.lifetime.start.p0(i64 4, ptr %16) #13
  call void @llvm.lifetime.start.p0(i64 4, ptr %17) #13
  store i32 0, ptr %16, align 4, !tbaa !8
  br label %33

33:                                               ; preds = %57, %4
  %34 = load i32, ptr %16, align 4, !tbaa !8
  %35 = load ptr, ptr %7, align 8, !tbaa !33
  %36 = call i32 @Vec_IntSize(ptr noundef %35)
  %37 = icmp slt i32 %34, %36
  br i1 %37, label %38, label %42

38:                                               ; preds = %33
  %39 = load ptr, ptr %7, align 8, !tbaa !33
  %40 = load i32, ptr %16, align 4, !tbaa !8
  %41 = call i32 @Vec_IntEntry(ptr noundef %39, i32 noundef %40)
  store i32 %41, ptr %17, align 4, !tbaa !8
  br label %42

42:                                               ; preds = %38, %33
  %43 = phi i1 [ false, %33 ], [ true, %38 ]
  br i1 %43, label %44, label %60

44:                                               ; preds = %42
  %45 = load ptr, ptr %5, align 8, !tbaa !162
  %46 = getelementptr inbounds nuw %struct.Gia_SimRsbMan_t_, ptr %45, i32 0, i32 5
  %47 = load ptr, ptr %46, align 8, !tbaa !171
  %48 = load ptr, ptr %5, align 8, !tbaa !162
  %49 = getelementptr inbounds nuw %struct.Gia_SimRsbMan_t_, ptr %48, i32 0, i32 7
  %50 = load i32, ptr %49, align 8, !tbaa !166
  %51 = load i32, ptr %17, align 4, !tbaa !8
  %52 = mul nsw i32 %50, %51
  %53 = call ptr @Vec_WrdEntryP(ptr noundef %47, i32 noundef %52)
  %54 = load i32, ptr %16, align 4, !tbaa !8
  %55 = sext i32 %54 to i64
  %56 = getelementptr inbounds [16 x ptr], ptr %12, i64 0, i64 %55
  store ptr %53, ptr %56, align 8, !tbaa !47
  br label %57

57:                                               ; preds = %44
  %58 = load i32, ptr %16, align 4, !tbaa !8
  %59 = add nsw i32 %58, 1
  store i32 %59, ptr %16, align 4, !tbaa !8
  br label %33, !llvm.loop !177

60:                                               ; preds = %42
  store i32 0, ptr %13, align 4, !tbaa !8
  br label %61

61:                                               ; preds = %109, %60
  %62 = load i32, ptr %13, align 4, !tbaa !8
  %63 = load ptr, ptr %5, align 8, !tbaa !162
  %64 = getelementptr inbounds nuw %struct.Gia_SimRsbMan_t_, ptr %63, i32 0, i32 7
  %65 = load i32, ptr %64, align 8, !tbaa !166
  %66 = mul nsw i32 64, %65
  %67 = icmp slt i32 %62, %66
  br i1 %67, label %68, label %112

68:                                               ; preds = %61
  %69 = load ptr, ptr %5, align 8, !tbaa !162
  %70 = getelementptr inbounds nuw %struct.Gia_SimRsbMan_t_, ptr %69, i32 0, i32 8
  %71 = getelementptr inbounds [3 x ptr], ptr %70, i64 0, i64 2
  %72 = load ptr, ptr %71, align 8, !tbaa !47
  %73 = load i32, ptr %13, align 4, !tbaa !8
  %74 = call i32 @Abc_TtGetBit(ptr noundef %72, i32 noundef %73)
  %75 = icmp ne i32 %74, 0
  br i1 %75, label %76, label %82

76:                                               ; preds = %68
  %77 = load ptr, ptr %11, align 8, !tbaa !47
  %78 = load i32, ptr %13, align 4, !tbaa !8
  %79 = call i32 @Abc_TtGetBit(ptr noundef %77, i32 noundef %78)
  %80 = load i32, ptr %8, align 4, !tbaa !8
  %81 = icmp ne i32 %79, %80
  br i1 %81, label %82, label %83

82:                                               ; preds = %76, %68
  br label %109

83:                                               ; preds = %76
  store i32 0, ptr %15, align 4, !tbaa !8
  store i32 0, ptr %14, align 4, !tbaa !8
  br label %84

84:                                               ; preds = %103, %83
  %85 = load i32, ptr %14, align 4, !tbaa !8
  %86 = load ptr, ptr %7, align 8, !tbaa !33
  %87 = call i32 @Vec_IntSize(ptr noundef %86)
  %88 = icmp slt i32 %85, %87
  br i1 %88, label %89, label %106

89:                                               ; preds = %84
  %90 = load i32, ptr %14, align 4, !tbaa !8
  %91 = sext i32 %90 to i64
  %92 = getelementptr inbounds [16 x ptr], ptr %12, i64 0, i64 %91
  %93 = load ptr, ptr %92, align 8, !tbaa !47
  %94 = load i32, ptr %13, align 4, !tbaa !8
  %95 = call i32 @Abc_TtGetBit(ptr noundef %93, i32 noundef %94)
  %96 = icmp ne i32 %95, 0
  br i1 %96, label %97, label %102

97:                                               ; preds = %89
  %98 = load i32, ptr %14, align 4, !tbaa !8
  %99 = shl i32 1, %98
  %100 = load i32, ptr %15, align 4, !tbaa !8
  %101 = or i32 %100, %99
  store i32 %101, ptr %15, align 4, !tbaa !8
  br label %102

102:                                              ; preds = %97, %89
  br label %103

103:                                              ; preds = %102
  %104 = load i32, ptr %14, align 4, !tbaa !8
  %105 = add nsw i32 %104, 1
  store i32 %105, ptr %14, align 4, !tbaa !8
  br label %84, !llvm.loop !178

106:                                              ; preds = %84
  %107 = load ptr, ptr %10, align 8, !tbaa !47
  %108 = load i32, ptr %15, align 4, !tbaa !8
  call void @Abc_TtSetBit(ptr noundef %107, i32 noundef %108)
  br label %109

109:                                              ; preds = %106, %82
  %110 = load i32, ptr %13, align 4, !tbaa !8
  %111 = add nsw i32 %110, 1
  store i32 %111, ptr %13, align 4, !tbaa !8
  br label %61, !llvm.loop !179

112:                                              ; preds = %61
  %113 = load ptr, ptr %10, align 8, !tbaa !47
  call void @llvm.lifetime.end.p0(i64 4, ptr %17) #13
  call void @llvm.lifetime.end.p0(i64 4, ptr %16) #13
  call void @llvm.lifetime.end.p0(i64 4, ptr %15) #13
  call void @llvm.lifetime.end.p0(i64 4, ptr %14) #13
  call void @llvm.lifetime.end.p0(i64 4, ptr %13) #13
  call void @llvm.lifetime.end.p0(i64 128, ptr %12) #13
  call void @llvm.lifetime.end.p0(i64 8, ptr %11) #13
  call void @llvm.lifetime.end.p0(i64 8, ptr %10) #13
  call void @llvm.lifetime.end.p0(i64 4, ptr %9) #13
  ret ptr %113
}