; Function Attrs: nofree nounwind memory(readwrite, argmem: read) uwtable
define noalias noundef ptr @Gia_SimRsbFunc(ptr noundef readonly captures(none) %0, i32 noundef %1, ptr noundef readonly captures(none) %2, i32 noundef %3) local_unnamed_addr #13 {
  %5 = alloca [16 x ptr], align 16
  %6 = getelementptr i8, ptr %2, i64 4
  %.val37 = load i32, ptr %6, align 4, !tbaa !28
  %.val37.fr = freeze i32 %.val37
  %7 = icmp slt i32 %.val37.fr, 7
  %8 = add nsw i32 %.val37.fr, -6
  %9 = shl nuw i32 1, %8
  %10 = select i1 %7, i32 1, i32 %9
  %11 = sext i32 %10 to i64
  %12 = tail call noalias ptr @calloc(i64 noundef %11, i64 noundef 8) #35
  %13 = getelementptr inbounds nuw i8, ptr %0, i64 40
  %14 = load ptr, ptr %13, align 8, !tbaa !168
  %15 = getelementptr inbounds nuw i8, ptr %0, i64 56
  %16 = load i32, ptr %15, align 8, !tbaa !163
  %17 = mul nsw i32 %16, %1
  %18 = getelementptr i8, ptr %14, i64 8
  %.val40 = load ptr, ptr %18, align 8, !tbaa !31
  %19 = sext i32 %17 to i64
  %20 = getelementptr inbounds i64, ptr %.val40, i64 %19
  call void @llvm.lifetime.start.p0(i64 128, ptr nonnull %5) #32
  call void @llvm.memset.p0.i64(ptr noundef nonnull align 16 dereferenceable(128) %5, i8 0, i64 128, i1 false)
  %21 = icmp sgt i32 %.val37.fr, 0
  br i1 %21, label %.lr.ph, label %.critedge.preheader.thread

.lr.ph:                                           ; preds = %4
  %22 = getelementptr i8, ptr %2, i64 8
  %.val38 = load ptr, ptr %22, align 8, !tbaa !29
  %wide.trip.count = zext nneg i32 %.val37.fr to i64
  br label %62

.critedge.preheader:                              ; preds = %62
  %23 = icmp sgt i32 %16, 0
  br i1 %23, label %.lr.ph46, label %.critedge._crit_edge

.critedge.preheader.thread:                       ; preds = %4
  %24 = icmp sgt i32 %16, 0
  br i1 %24, label %.lr.ph46.thread, label %.critedge._crit_edge

.lr.ph46.thread:                                  ; preds = %.critedge.preheader.thread
  %25 = getelementptr inbounds nuw i8, ptr %0, i64 80
  %26 = load ptr, ptr %25, align 8, !tbaa !144
  %27 = shl i32 %16, 6
  %smax = tail call i32 @llvm.smax.i32(i32 %27, i32 1)
  br label %.lr.ph46.split

.lr.ph46:                                         ; preds = %.critedge.preheader
  %28 = shl i32 %16, 6
  %29 = getelementptr inbounds nuw i8, ptr %0, i64 80
  %30 = load ptr, ptr %29, align 8, !tbaa !144
  %smax55 = tail call i32 @llvm.smax.i32(i32 %28, i32 1)
  %wide.trip.count53 = zext nneg i32 %.val37.fr to i64
  br label %.lr.ph46.split.us

.lr.ph46.split.us:                                ; preds = %.lr.ph46, %.critedge.us
  %.045.us = phi i32 [ %53, %.critedge.us ], [ 0, %.lr.ph46 ]
  %31 = lshr i32 %.045.us, 6
  %32 = zext nneg i32 %31 to i64
  %33 = getelementptr inbounds nuw i64, ptr %30, i64 %32
  %34 = load i64, ptr %33, align 8, !tbaa !41
  %35 = and i32 %.045.us, 63
  %36 = zext nneg i32 %35 to i64
  %37 = shl nuw i64 1, %36
  %38 = and i64 %34, %37
  %.not.us = icmp eq i64 %38, 0
  br i1 %.not.us, label %.critedge.us, label %39

39:                                               ; preds = %.lr.ph46.split.us
  %40 = getelementptr inbounds nuw i64, ptr %20, i64 %32
  %41 = load i64, ptr %40, align 8, !tbaa !41
  %42 = lshr i64 %41, %36
  %43 = trunc i64 %42 to i32
  %44 = and i32 %43, 1
  %.not34.us = icmp eq i32 %44, %3
  br i1 %.not34.us, label %.preheader.us, label %.critedge.us

.preheader.us:                                    ; preds = %39, %.preheader.us
  %indvars.iv50 = phi i64 [ %indvars.iv.next51, %.preheader.us ], [ 0, %39 ]
  %.03243.us = phi i32 [ %.1.us, %.preheader.us ], [ 0, %39 ]
  %45 = getelementptr inbounds nuw [16 x ptr], ptr %5, i64 0, i64 %indvars.iv50
  %46 = load ptr, ptr %45, align 8, !tbaa !144
  %47 = getelementptr inbounds nuw i64, ptr %46, i64 %32
  %48 = load i64, ptr %47, align 8, !tbaa !41
  %49 = and i64 %48, %37
  %.not35.us = icmp eq i64 %49, 0
  %50 = trunc nuw nsw i64 %indvars.iv50 to i32
  %51 = shl nuw i32 1, %50
  %52 = select i1 %.not35.us, i32 0, i32 %51
  %.1.us = or i32 %52, %.03243.us
  %indvars.iv.next51 = add nuw nsw i64 %indvars.iv50, 1
  %exitcond54.not = icmp eq i64 %indvars.iv.next51, %wide.trip.count53
  br i1 %exitcond54.not, label %._crit_edge.us, label %.preheader.us, !llvm.loop !174

.critedge.us:                                     ; preds = %._crit_edge.us, %39, %.lr.ph46.split.us
  %53 = add nuw nsw i32 %.045.us, 1
  %exitcond56.not = icmp eq i32 %53, %smax55
  br i1 %exitcond56.not, label %.critedge._crit_edge, label %.lr.ph46.split.us, !llvm.loop !175

._crit_edge.us:                                   ; preds = %.preheader.us
  %54 = and i32 %.1.us, 63
  %55 = zext nneg i32 %54 to i64
  %56 = shl nuw i64 1, %55
  %57 = ashr i32 %.1.us, 6
  %58 = sext i32 %57 to i64
  %59 = getelementptr inbounds i64, ptr %12, i64 %58
  %60 = load i64, ptr %59, align 8, !tbaa !41
  %61 = or i64 %60, %56
  store i64 %61, ptr %59, align 8, !tbaa !41
  br label %.critedge.us

62:                                               ; preds = %.lr.ph, %62
  %indvars.iv = phi i64 [ 0, %.lr.ph ], [ %indvars.iv.next, %62 ]
  %63 = getelementptr inbounds nuw i32, ptr %.val38, i64 %indvars.iv
  %64 = load i32, ptr %63, align 4, !tbaa !30
  %65 = mul nsw i32 %64, %16
  %66 = sext i32 %65 to i64
  %67 = getelementptr inbounds i64, ptr %.val40, i64 %66
  %68 = getelementptr inbounds nuw [16 x ptr], ptr %5, i64 0, i64 %indvars.iv
  store ptr %67, ptr %68, align 8, !tbaa !144
  %indvars.iv.next = add nuw nsw i64 %indvars.iv, 1
  %exitcond.not = icmp eq i64 %indvars.iv.next, %wide.trip.count
  br i1 %exitcond.not, label %.critedge.preheader, label %62, !llvm.loop !176

.lr.ph46.split:                                   ; preds = %.lr.ph46.thread, %.critedge
  %.045 = phi i32 [ %83, %.critedge ], [ 0, %.lr.ph46.thread ]
  %69 = lshr i32 %.045, 6
  %70 = zext nneg i32 %69 to i64
  %71 = getelementptr inbounds nuw i64, ptr %26, i64 %70
  %72 = load i64, ptr %71, align 8, !tbaa !41
  %73 = and i32 %.045, 63
  %74 = zext nneg i32 %73 to i64
  %75 = shl nuw i64 1, %74
  %76 = and i64 %72, %75
  %.not = icmp eq i64 %76, 0
  br i1 %.not, label %.critedge, label %77

77:                                               ; preds = %.lr.ph46.split
  %78 = getelementptr inbounds nuw i64, ptr %20, i64 %70
  %79 = load i64, ptr %78, align 8, !tbaa !41
  %80 = lshr i64 %79, %74
  %81 = trunc i64 %80 to i32
  %82 = and i32 %81, 1
  %.not34 = icmp eq i32 %82, %3
  br i1 %.not34, label %.preheader, label %.critedge

.preheader:                                       ; preds = %77
  store i64 1, ptr %12, align 8, !tbaa !41
  br label %.critedge

.critedge:                                        ; preds = %.lr.ph46.split, %77, %.preheader
  %83 = add nuw nsw i32 %.045, 1
  %exitcond49.not = icmp eq i32 %83, %smax
  br i1 %exitcond49.not, label %.critedge._crit_edge, label %.lr.ph46.split, !llvm.loop !175

.critedge._crit_edge:                             ; preds = %.critedge, %.critedge.us, %.critedge.preheader.thread, %.critedge.preheader
  call void @llvm.lifetime.end.p0(i64 128, ptr nonnull %5) #32
  ret ptr %12
}